; Function Attrs: mustprogress uwtable
define hidden void @_ZN2cv11bioinspired17BasicRetinaFilter27_horizontalAnticausalFilterEPfjj(ptr noundef nonnull readonly align 8 captures(none) dereferenceable(168) %0, ptr noundef %1, i32 noundef %2, i32 noundef %3) local_unnamed_addr #3 align 2 personality ptr @__gxx_personality_v0 {
  %5 = alloca %"class.cv::Range", align 4
  %6 = alloca %"class.cv::bioinspired::BasicRetinaFilter::Parallel_horizontalAnticausalFilter", align 8
  call void @llvm.lifetime.start.p0(i64 8, ptr nonnull %5) #19
  store i32 %2, ptr %5, align 4, !tbaa !71
  %7 = getelementptr inbounds nuw i8, ptr %5, i64 4
  store i32 %3, ptr %7, align 4, !tbaa !73
  call void @llvm.lifetime.start.p0(i64 32, ptr nonnull %6) #19
  %8 = getelementptr inbounds nuw i8, ptr %0, i64 32
  %9 = load i64, ptr %8, align 8, !tbaa !17
  %10 = trunc i64 %9 to i32
  %11 = getelementptr inbounds nuw i8, ptr %0, i64 156
  %12 = load float, ptr %11, align 4, !tbaa !65
  store ptr getelementptr inbounds nuw inrange(-16, 24) (i8, ptr @_ZTVN2cv11bioinspired17BasicRetinaFilter35Parallel_horizontalAnticausalFilterE, i64 16), ptr %6, align 8, !tbaa !13
  %13 = getelementptr inbounds nuw i8, ptr %6, i64 8
  store ptr %1, ptr %13, align 8, !tbaa !92
  %14 = getelementptr inbounds nuw i8, ptr %6, i64 16
  store i32 %3, ptr %14, align 8, !tbaa !94
  %15 = getelementptr inbounds nuw i8, ptr %6, i64 20
  store i32 %10, ptr %15, align 4, !tbaa !95
  %16 = getelementptr inbounds nuw i8, ptr %6, i64 24
  store float %12, ptr %16, align 8, !tbaa !96
  invoke void @_ZN2cv13parallel_for_ERKNS_5RangeERKNS_16ParallelLoopBodyEd(ptr noundef nonnull align 4 dereferenceable(8) %5, ptr noundef nonnull align 8 dereferenceable(8) %6, double noundef -1.000000e+00)
          to label %17 unwind label %18

17:                                               ; preds = %4
  call void @_ZN2cv16ParallelLoopBodyD2Ev(ptr noundef nonnull align 8 dereferenceable(28) %6) #19
  call void @llvm.lifetime.end.p0(i64 32, ptr nonnull %6) #19
  call void @llvm.lifetime.end.p0(i64 8, ptr nonnull %5) #19
  ret void

18:                                               ; preds = %4
  %19 = landingpad { ptr, i32 }
          cleanup
  call void @_ZN2cv16ParallelLoopBodyD2Ev(ptr noundef nonnull align 8 dereferenceable(28) %6) #19
  call void @llvm.lifetime.end.p0(i64 32, ptr nonnull %6) #19
  call void @llvm.lifetime.end.p0(i64 8, ptr nonnull %5) #19
  resume { ptr, i32 } %19
}